; Function Attrs: mustprogress uwtable
define noundef range(i32 -1, 1) i32 @_ZN3zmq6dish_t5xrecvEPNS_5msg_tE(ptr noundef nonnull align 8 dereferenceable(2056) %0, ptr noundef %1) unnamed_addr #0 align 2 {
  %3 = getelementptr inbounds nuw i8, ptr %0, i64 1984
  %4 = load i8, ptr %3, align 8, !tbaa !18, !range !110, !noundef !111
  %5 = trunc nuw i8 %4 to i1
  br i1 %5, label %6, label %18

6:                                                ; preds = %2
  %7 = getelementptr inbounds nuw i8, ptr %0, i64 1992
  %8 = tail call noundef i32 @_ZN3zmq5msg_t4moveERS0_(ptr noundef nonnull align 8 dereferenceable(64) %1, ptr noundef nonnull align 8 dereferenceable(64) %7)
  %.not = icmp eq i32 %8, 0
  br i1 %.not, label %17, label %9, !prof !98

9:                                                ; preds = %6
  %10 = tail call ptr @__errno_location() #21
  %11 = load i32, ptr %10, align 4, !tbaa !99
  %12 = tail call ptr @strerror(i32 noundef %11) #22
  %13 = load ptr, ptr @stderr, align 8, !tbaa !100
  %14 = tail call i32 (ptr, ptr, ...) @fprintf(ptr noundef %13, ptr noundef nonnull @.str, ptr noundef %12, ptr noundef nonnull @.str.1, i32 noundef 150) #23
  %15 = load ptr, ptr @stderr, align 8, !tbaa !100
  %16 = tail call i32 @fflush(ptr noundef %15)
  tail call void @_ZN3zmq9zmq_abortEPKc(ptr noundef %12)
  br label %17

17:                                               ; preds = %9, %6
  store i8 0, ptr %3, align 8, !tbaa !18
  br label %20

18:                                               ; preds = %2
  %19 = tail call noundef i32 @_ZN3zmq6dish_t6xxrecvEPNS_5msg_tE(ptr noundef nonnull align 8 dereferenceable(2056) %0, ptr noundef %1)
  br label %20

20:                                               ; preds = %18, %17
  %.0 = phi i32 [ 0, %17 ], [ %19, %18 ]
  ret i32 %.0
}